target datalayout = "e-m:e-p270:32:32-p271:32:32-p272:64:64-i64:64-i128:128-f80:128-n8:16:32:64-S128"
target triple = "x86_64-pc-linux-gnu"

%struct.state = type { i32, i32, i32, i32, i8, i8, [2000 x i64], [2000 x i8], [256 x %struct.ttinfo], [512 x i8], [50 x %struct.lsinfo], i32 }
%struct.ttinfo = type { i32, i8, i32, i8, i8 }
%struct.lsinfo = type { i64, i64 }
%struct.pg_tz_cache = type { [256 x i8], %struct.pg_tz }
%struct.pg_tz = type { [256 x i8], %struct.state }
%struct.HASHCTL = type { i64, i64, i64, i64, i64, i64, ptr, ptr, ptr, ptr, ptr, ptr }

@timezone_cache = internal global ptr null, align 8
@.str = private unnamed_addr constant [4 x i8] c"GMT\00", align 1
@.str.1 = private unnamed_addr constant [35 x i8] c"could not initialize GMT time zone\00", align 1
@.str.2 = private unnamed_addr constant [7 x i8] c"pgtz.c\00", align 1
@__func__.pg_tzset = private unnamed_addr constant [9 x i8] c"pg_tzset\00", align 1
@.str.11 = private unnamed_addr constant [10 x i8] c"Timezones\00", align 1

; Function Attrs: nounwind uwtable
define internal zeroext i1 @init_timezone_hashtable() #0 {
  %1 = alloca i1, align 1
  %2 = alloca %struct.HASHCTL, align 8
  %3 = alloca i32, align 4
  call void @llvm.lifetime.start.p0(i64 96, ptr %2) #7
  %4 = getelementptr inbounds nuw %struct.HASHCTL, ptr %2, i32 0, i32 4
  store i64 256, ptr %4, align 8
  %5 = getelementptr inbounds nuw %struct.HASHCTL, ptr %2, i32 0, i32 5
  store i64 23952, ptr %5, align 8
  %6 = call ptr @hash_create(ptr noundef @.str.11, i64 noundef 4, ptr noundef %2, i32 noundef 24)
  store ptr %6, ptr @timezone_cache, align 8
  %7 = load ptr, ptr @timezone_cache, align 8
  %8 = icmp ne ptr %7, null
  br i1 %8, label %10, label %9

9:                                                ; preds = %0
  store i1 false, ptr %1, align 1
  store i32 1, ptr %3, align 4
  br label %11

10:                                               ; preds = %0
  store i1 true, ptr %1, align 1
  store i32 1, ptr %3, align 4
  br label %11

11:                                               ; preds = %10, %9
  call void @llvm.lifetime.end.p0(i64 96, ptr %2) #7
  %12 = load i1, ptr %1, align 1
  ret i1 %12
}

; Function Attrs: nounwind uwtable
define dso_local ptr @pg_tzset(ptr noundef %0) #0 {
  %2 = alloca ptr, align 8
  %3 = alloca ptr, align 8
  %4 = alloca ptr, align 8
  %5 = alloca %struct.state, align 8
  %6 = alloca [256 x i8], align 16
  %7 = alloca [256 x i8], align 16
  %8 = alloca ptr, align 8
  %9 = alloca i32, align 4
  store ptr %0, ptr %3, align 8
  call void @llvm.lifetime.start.p0(i64 8, ptr %4) #7
  call void @llvm.lifetime.start.p0(i64 23440, ptr %5) #7
  call void @llvm.lifetime.start.p0(i64 256, ptr %6) #7
  call void @llvm.lifetime.start.p0(i64 256, ptr %7) #7
  call void @llvm.lifetime.start.p0(i64 8, ptr %8) #7
  %10 = load ptr, ptr %3, align 8
  %11 = call i64 @strlen(ptr noundef %10) #8
  %12 = icmp ugt i64 %11, 255
  br i1 %12, label %13, label %14

13:                                               ; preds = %1
  store ptr null, ptr %2, align 8
  store i32 1, ptr %9, align 4
  br label %100

14:                                               ; preds = %1
  %15 = load ptr, ptr @timezone_cache, align 8
  %16 = icmp ne ptr %15, null
  br i1 %16, label %21, label %17

17:                                               ; preds = %14
  %18 = call zeroext i1 @init_timezone_hashtable()
  br i1 %18, label %20, label %19

19:                                               ; preds = %17
  store ptr null, ptr %2, align 8
  store i32 1, ptr %9, align 4
  br label %100

20:                                               ; preds = %17
  br label %21

21:                                               ; preds = %20, %14
  %22 = getelementptr inbounds [256 x i8], ptr %6, i64 0, i64 0
  store ptr %22, ptr %8, align 8
  br label %23

23:                                               ; preds = %27, %21
  %24 = load ptr, ptr %3, align 8
  %25 = load i8, ptr %24, align 1
  %26 = icmp ne i8 %25, 0
  br i1 %26, label %27, label %34

27:                                               ; preds = %23
  %28 = load ptr, ptr %3, align 8
  %29 = getelementptr inbounds nuw i8, ptr %28, i32 1
  store ptr %29, ptr %3, align 8
  %30 = load i8, ptr %28, align 1
  %31 = call zeroext i8 @pg_toupper(i8 noundef zeroext %30)
  %32 = load ptr, ptr %8, align 8
  %33 = getelementptr inbounds nuw i8, ptr %32, i32 1
  store ptr %33, ptr %8, align 8
  store i8 %31, ptr %32, align 1
  br label %23, !llvm.loop !8

34:                                               ; preds = %23
  %35 = load ptr, ptr %8, align 8
  store i8 0, ptr %35, align 1
  %36 = load ptr, ptr @timezone_cache, align 8
  %37 = getelementptr inbounds [256 x i8], ptr %6, i64 0, i64 0
  %38 = call ptr @hash_search(ptr noundef %36, ptr noundef %37, i32 noundef 0, ptr noundef null)
  store ptr %38, ptr %4, align 8
  %39 = load ptr, ptr %4, align 8
  %40 = icmp ne ptr %39, null
  br i1 %40, label %41, label %44

41:                                               ; preds = %34
  %42 = load ptr, ptr %4, align 8
  %43 = getelementptr inbounds nuw %struct.pg_tz_cache, ptr %42, i32 0, i32 1
  store ptr %43, ptr %2, align 8
  store i32 1, ptr %9, align 4
  br label %100

44:                                               ; preds = %34
  %45 = getelementptr inbounds [256 x i8], ptr %6, i64 0, i64 0
  %46 = call i32 @strcmp(ptr noundef %45, ptr noundef @.str) #8
  %47 = icmp eq i32 %46, 0
  br i1 %47, label %48, label %66

48:                                               ; preds = %44
  %49 = getelementptr inbounds [256 x i8], ptr %6, i64 0, i64 0
  %50 = call zeroext i1 @tzparse(ptr noundef %49, ptr noundef %5, i1 noundef zeroext true)
  br i1 %50, label %62, label %51

51:                                               ; preds = %48
  br label %52

52:                                               ; preds = %51
  br i1 true, label %53, label %55

53:                                               ; preds = %52
  %54 = call zeroext i1 @errstart_cold(i32 noundef 21, ptr noundef null) #9
  br i1 %54, label %57, label %59

55:                                               ; preds = %52
  %56 = call zeroext i1 @errstart(i32 noundef 21, ptr noundef null)
  br i1 %56, label %57, label %59

57:                                               ; preds = %55, %53
  %58 = call i32 (ptr, ...) @errmsg_internal(ptr noundef @.str.1)
  call void @errfinish(ptr noundef @.str.2, i32 noundef 278, ptr noundef @__func__.pg_tzset)
  br label %59

59:                                               ; preds = %57, %55, %53
  unreachable

60:                                               ; No predecessors!
  br label %61

61:                                               ; preds = %60
  br label %62

62:                                               ; preds = %61, %48
  %63 = getelementptr inbounds [256 x i8], ptr %7, i64 0, i64 0
  %64 = getelementptr inbounds [256 x i8], ptr %6, i64 0, i64 0
  %65 = call ptr @strcpy(ptr noundef %63, ptr noundef %64) #7
  br label %85

66:                                               ; preds = %44
  %67 = getelementptr inbounds [256 x i8], ptr %6, i64 0, i64 0
  %68 = getelementptr inbounds [256 x i8], ptr %7, i64 0, i64 0
  %69 = call i32 @tzload(ptr noundef %67, ptr noundef %68, ptr noundef %5, i1 noundef zeroext true)
  %70 = icmp ne i32 %69, 0
  br i1 %70, label %71, label %84

71:                                               ; preds = %66
  %72 = getelementptr inbounds [256 x i8], ptr %6, i64 0, i64 0
  %73 = load i8, ptr %72, align 16
  %74 = sext i8 %73 to i32
  %75 = icmp eq i32 %74, 58
  br i1 %75, label %79, label %76

76:                                               ; preds = %71
  %77 = getelementptr inbounds [256 x i8], ptr %6, i64 0, i64 0
  %78 = call zeroext i1 @tzparse(ptr noundef %77, ptr noundef %5, i1 noundef zeroext false)
  br i1 %78, label %80, label %79

79:                                               ; preds = %76, %71
  store ptr null, ptr %2, align 8
  store i32 1, ptr %9, align 4
  br label %100

80:                                               ; preds = %76
  %81 = getelementptr inbounds [256 x i8], ptr %7, i64 0, i64 0
  %82 = getelementptr inbounds [256 x i8], ptr %6, i64 0, i64 0
  %83 = call ptr @strcpy(ptr noundef %81, ptr noundef %82) #7
  br label %84

84:                                               ; preds = %80, %66
  br label %85

85:                                               ; preds = %84, %62
  %86 = load ptr, ptr @timezone_cache, align 8
  %87 = getelementptr inbounds [256 x i8], ptr %6, i64 0, i64 0
  %88 = call ptr @hash_search(ptr noundef %86, ptr noundef %87, i32 noundef 1, ptr noundef null)
  store ptr %88, ptr %4, align 8
  %89 = load ptr, ptr %4, align 8
  %90 = getelementptr inbounds nuw %struct.pg_tz_cache, ptr %89, i32 0, i32 1
  %91 = getelementptr inbounds nuw %struct.pg_tz, ptr %90, i32 0, i32 0
  %92 = getelementptr inbounds [256 x i8], ptr %91, i64 0, i64 0
  %93 = getelementptr inbounds [256 x i8], ptr %7, i64 0, i64 0
  %94 = call ptr @strcpy(ptr noundef %92, ptr noundef %93) #7
  %95 = load ptr, ptr %4, align 8
  %96 = getelementptr inbounds nuw %struct.pg_tz_cache, ptr %95, i32 0, i32 1
  %97 = getelementptr inbounds nuw %struct.pg_tz, ptr %96, i32 0, i32 1
  call void @llvm.memcpy.p0.p0.i64(ptr align 8 %97, ptr align 8 %5, i64 23440, i1 false)
  %98 = load ptr, ptr %4, align 8
  %99 = getelementptr inbounds nuw %struct.pg_tz_cache, ptr %98, i32 0, i32 1
  store ptr %99, ptr %2, align 8
  store i32 1, ptr %9, align 4
  br label %100

100:                                              ; preds = %85, %79, %41, %19, %13
  call void @llvm.lifetime.end.p0(i64 8, ptr %8) #7
  call void @llvm.lifetime.end.p0(i64 256, ptr %7) #7
  call void @llvm.lifetime.end.p0(i64 256, ptr %6) #7
  call void @llvm.lifetime.end.p0(i64 23440, ptr %5) #7
  call void @llvm.lifetime.end.p0(i64 8, ptr %4) #7
  %101 = load ptr, ptr %2, align 8
  ret ptr %101
}