; Function Attrs: nounwind uwtable
define dso_local ptr @pg_tzset(ptr noundef readonly captures(none) %0) local_unnamed_addr #0 {
  %2 = alloca %struct.HASHCTL, align 8
  %3 = alloca %struct.state, align 8
  %4 = alloca [256 x i8], align 16
  %5 = alloca [256 x i8], align 16
  call void @llvm.lifetime.start.p0(i64 23440, ptr nonnull %3) #10
  call void @llvm.lifetime.start.p0(i64 256, ptr nonnull %4) #10
  call void @llvm.lifetime.start.p0(i64 256, ptr nonnull %5) #10
  %6 = tail call i64 @strlen(ptr noundef nonnull dereferenceable(1) %0) #11
  %7 = icmp ugt i64 %6, 255
  br i1 %7, label %46, label %8

8:                                                ; preds = %1
  %9 = load ptr, ptr @timezone_cache, align 8
  %.not = icmp eq ptr %9, null
  br i1 %.not, label %10, label %14

10:                                               ; preds = %8
  call void @llvm.lifetime.start.p0(i64 96, ptr nonnull %2) #10
  %11 = getelementptr inbounds nuw i8, ptr %2, i64 32
  store i64 256, ptr %11, align 8
  %12 = getelementptr inbounds nuw i8, ptr %2, i64 40
  store i64 23952, ptr %12, align 8
  %13 = call ptr @hash_create(ptr noundef nonnull @.str.11, i64 noundef 4, ptr noundef nonnull %2, i32 noundef 24) #10
  store ptr %13, ptr @timezone_cache, align 8
  %.not.i.not = icmp eq ptr %13, null
  call void @llvm.lifetime.end.p0(i64 96, ptr nonnull %2) #10
  br i1 %.not.i.not, label %46, label %14

14:                                               ; preds = %10, %8
  %15 = phi ptr [ %13, %10 ], [ %9, %8 ]
  %16 = load i8, ptr %0, align 1
  %.not1520 = icmp eq i8 %16, 0
  br i1 %.not1520, label %._crit_edge, label %.lr.ph

.lr.ph:                                           ; preds = %14, %.lr.ph
  %17 = phi i8 [ %21, %.lr.ph ], [ %16, %14 ]
  %.022 = phi ptr [ %20, %.lr.ph ], [ %4, %14 ]
  %.01121 = phi ptr [ %18, %.lr.ph ], [ %0, %14 ]
  %18 = getelementptr inbounds nuw i8, ptr %.01121, i64 1
  %19 = call zeroext i8 @pg_toupper(i8 noundef zeroext %17) #10
  %20 = getelementptr inbounds nuw i8, ptr %.022, i64 1
  store i8 %19, ptr %.022, align 1
  %21 = load i8, ptr %18, align 1
  %.not15 = icmp eq i8 %21, 0
  br i1 %.not15, label %._crit_edge.loopexit, label %.lr.ph, !llvm.loop !6

._crit_edge.loopexit:                             ; preds = %.lr.ph
  %.pre = load ptr, ptr @timezone_cache, align 8
  br label %._crit_edge

._crit_edge:                                      ; preds = %._crit_edge.loopexit, %14
  %22 = phi ptr [ %15, %14 ], [ %.pre, %._crit_edge.loopexit ]
  %.0.lcssa = phi ptr [ %4, %14 ], [ %20, %._crit_edge.loopexit ]
  store i8 0, ptr %.0.lcssa, align 1
  %23 = call ptr @hash_search(ptr noundef %22, ptr noundef nonnull %4, i32 noundef 0, ptr noundef null) #10
  %.not16 = icmp eq ptr %23, null
  br i1 %.not16, label %26, label %24

24:                                               ; preds = %._crit_edge
  %25 = getelementptr inbounds nuw i8, ptr %23, i64 256
  br label %46

26:                                               ; preds = %._crit_edge
  %lhsv = load i32, ptr %4, align 16
  %.not18 = icmp eq i32 %lhsv, 5524807
  br i1 %.not18, label %27, label %32

27:                                               ; preds = %26
  %28 = call zeroext i1 @tzparse(ptr noundef nonnull %4, ptr noundef nonnull %3, i1 noundef zeroext true) #10
  br i1 %28, label %.sink.split, label %29

29:                                               ; preds = %27
  %30 = call zeroext i1 @errstart_cold(i32 noundef 21, ptr noundef null) #12
  call void @llvm.assume(i1 %30)
  %31 = call i32 (ptr, ...) @errmsg_internal(ptr noundef nonnull @.str.1) #10
  call void @errfinish(ptr noundef nonnull @.str.2, i32 noundef 278, ptr noundef nonnull @__func__.pg_tzset) #10
  unreachable

32:                                               ; preds = %26
  %33 = call i32 @tzload(ptr noundef nonnull %4, ptr noundef nonnull %5, ptr noundef nonnull %3, i1 noundef zeroext true) #10
  %.not19 = icmp eq i32 %33, 0
  br i1 %.not19, label %40, label %34

34:                                               ; preds = %32
  %35 = load i8, ptr %4, align 16
  %36 = icmp eq i8 %35, 58
  br i1 %36, label %46, label %37

37:                                               ; preds = %34
  %38 = call zeroext i1 @tzparse(ptr noundef nonnull %4, ptr noundef nonnull %3, i1 noundef zeroext false) #10
  br i1 %38, label %.sink.split, label %46

.sink.split:                                      ; preds = %37, %27
  %39 = call ptr @strcpy(ptr noundef nonnull dereferenceable(1) %5, ptr noundef nonnull dereferenceable(1) %4) #10
  br label %40

40:                                               ; preds = %.sink.split, %32
  %41 = load ptr, ptr @timezone_cache, align 8
  %42 = call ptr @hash_search(ptr noundef %41, ptr noundef nonnull %4, i32 noundef 1, ptr noundef null) #10
  %43 = getelementptr inbounds nuw i8, ptr %42, i64 256
  %44 = call ptr @strcpy(ptr noundef nonnull dereferenceable(1) %43, ptr noundef nonnull dereferenceable(1) %5) #10
  %45 = getelementptr inbounds nuw i8, ptr %42, i64 512
  call void @llvm.memcpy.p0.p0.i64(ptr noundef nonnull align 8 dereferenceable(23440) %45, ptr noundef nonnull align 8 dereferenceable(23440) %3, i64 23440, i1 false)
  br label %46

46:                                               ; preds = %34, %37, %10, %1, %40, %24
  %.012 = phi ptr [ %25, %24 ], [ %43, %40 ], [ null, %1 ], [ null, %10 ], [ null, %37 ], [ null, %34 ]
  call void @llvm.lifetime.end.p0(i64 256, ptr nonnull %5) #10
  call void @llvm.lifetime.end.p0(i64 256, ptr nonnull %4) #10
  call void @llvm.lifetime.end.p0(i64 23440, ptr nonnull %3) #10
  ret ptr %.012
}